; Function Attrs: mustprogress nounwind
define internal fastcc void @_ZSt22__stable_sort_adaptiveIN9__gnu_cxx17__normal_iteratorIPPN4mold3elf6SymbolINS3_3SH4EEESt6vectorIS7_SaIS7_EEEES8_lNS0_5__ops15_Iter_comp_iterIZZNS3_L7get_mapIS5_EEN3tbb6detail2d219concurrent_hash_mapIPNS3_12InputSectionIT_EES9_IPNS4_ISL_EESaISP_EENSH_2d116tbb_hash_compareISN_EENSS_13tbb_allocatorISt4pairIKSN_SR_EEEEERNS3_7ContextISL_EEENKUlRKNSI_14hash_map_rangeINSI_17hash_map_iteratorINSJ_IPNSK_IS5_EESB_NST_IS17_EENSV_ISW_IKS17_SB_EEEEES1A_EEEEE_clES1G_EUlS7_S7_E_EEEvSL_SL_T0_T1_T2_(ptr %__first.coerce, ptr %__last.coerce, ptr noundef %__buffer, i64 noundef %__buffer_size) unnamed_addr #4 {
entry:
  %sub.ptr.lhs.cast.i = ptrtoint ptr %__last.coerce to i64
  %sub.ptr.rhs.cast.i = ptrtoint ptr %__first.coerce to i64
  %sub.ptr.sub.i = sub i64 %sub.ptr.lhs.cast.i, %sub.ptr.rhs.cast.i
  %sub.ptr.div.i = ashr exact i64 %sub.ptr.sub.i, 3
  %add = add nsw i64 %sub.ptr.div.i, 1
  %div = sdiv i64 %add, 2
  %add.ptr.i = getelementptr inbounds ptr, ptr %__first.coerce, i64 %div
  %cmp = icmp sgt i64 %div, %__buffer_size
  br i1 %cmp, label %if.then, label %if.else

if.then:                                          ; preds = %entry
  tail call fastcc void @_ZSt22__stable_sort_adaptiveIN9__gnu_cxx17__normal_iteratorIPPN4mold3elf6SymbolINS3_3SH4EEESt6vectorIS7_SaIS7_EEEES8_lNS0_5__ops15_Iter_comp_iterIZZNS3_L7get_mapIS5_EEN3tbb6detail2d219concurrent_hash_mapIPNS3_12InputSectionIT_EES9_IPNS4_ISL_EESaISP_EENSH_2d116tbb_hash_compareISN_EENSS_13tbb_allocatorISt4pairIKSN_SR_EEEEERNS3_7ContextISL_EEENKUlRKNSI_14hash_map_rangeINSI_17hash_map_iteratorINSJ_IPNSK_IS5_EESB_NST_IS17_EENSV_ISW_IKS17_SB_EEEEES1A_EEEEE_clES1G_EUlS7_S7_E_EEEvSL_SL_T0_T1_T2_(ptr %__first.coerce, ptr %add.ptr.i, ptr noundef %__buffer, i64 noundef %__buffer_size)
  tail call fastcc void @_ZSt22__stable_sort_adaptiveIN9__gnu_cxx17__normal_iteratorIPPN4mold3elf6SymbolINS3_3SH4EEESt6vectorIS7_SaIS7_EEEES8_lNS0_5__ops15_Iter_comp_iterIZZNS3_L7get_mapIS5_EEN3tbb6detail2d219concurrent_hash_mapIPNS3_12InputSectionIT_EES9_IPNS4_ISL_EESaISP_EENSH_2d116tbb_hash_compareISN_EENSS_13tbb_allocatorISt4pairIKSN_SR_EEEEERNS3_7ContextISL_EEENKUlRKNSI_14hash_map_rangeINSI_17hash_map_iteratorINSJ_IPNSK_IS5_EESB_NST_IS17_EENSV_ISW_IKS17_SB_EEEEES1A_EEEEE_clES1G_EUlS7_S7_E_EEEvSL_SL_T0_T1_T2_(ptr %add.ptr.i, ptr %__last.coerce, ptr noundef %__buffer, i64 noundef %__buffer_size)
  br label %if.end

if.else:                                          ; preds = %entry
  tail call fastcc void @_ZSt24__merge_sort_with_bufferIN9__gnu_cxx17__normal_iteratorIPPN4mold3elf6SymbolINS3_3SH4EEESt6vectorIS7_SaIS7_EEEES8_NS0_5__ops15_Iter_comp_iterIZZNS3_L7get_mapIS5_EEN3tbb6detail2d219concurrent_hash_mapIPNS3_12InputSectionIT_EES9_IPNS4_ISL_EESaISP_EENSH_2d116tbb_hash_compareISN_EENSS_13tbb_allocatorISt4pairIKSN_SR_EEEEERNS3_7ContextISL_EEENKUlRKNSI_14hash_map_rangeINSI_17hash_map_iteratorINSJ_IPNSK_IS5_EESB_NST_IS17_EENSV_ISW_IKS17_SB_EEEEES1A_EEEEE_clES1G_EUlS7_S7_E_EEEvSL_SL_T0_T1_(ptr %__first.coerce, ptr %add.ptr.i, ptr noundef %__buffer)
  tail call fastcc void @_ZSt24__merge_sort_with_bufferIN9__gnu_cxx17__normal_iteratorIPPN4mold3elf6SymbolINS3_3SH4EEESt6vectorIS7_SaIS7_EEEES8_NS0_5__ops15_Iter_comp_iterIZZNS3_L7get_mapIS5_EEN3tbb6detail2d219concurrent_hash_mapIPNS3_12InputSectionIT_EES9_IPNS4_ISL_EESaISP_EENSH_2d116tbb_hash_compareISN_EENSS_13tbb_allocatorISt4pairIKSN_SR_EEEEERNS3_7ContextISL_EEENKUlRKNSI_14hash_map_rangeINSI_17hash_map_iteratorINSJ_IPNSK_IS5_EESB_NST_IS17_EENSV_ISW_IKS17_SB_EEEEES1A_EEEEE_clES1G_EUlS7_S7_E_EEEvSL_SL_T0_T1_(ptr %add.ptr.i, ptr %__last.coerce, ptr noundef %__buffer)
  br label %if.end

if.end:                                           ; preds = %if.else, %if.then
  %sub.ptr.lhs.cast.i13 = ptrtoint ptr %add.ptr.i to i64
  %sub.ptr.sub.i19 = sub i64 %sub.ptr.lhs.cast.i, %sub.ptr.lhs.cast.i13
  %sub.ptr.div.i20 = ashr exact i64 %sub.ptr.sub.i19, 3
  tail call fastcc void @_ZSt16__merge_adaptiveIN9__gnu_cxx17__normal_iteratorIPPN4mold3elf6SymbolINS3_3SH4EEESt6vectorIS7_SaIS7_EEEElS8_NS0_5__ops15_Iter_comp_iterIZZNS3_L7get_mapIS5_EEN3tbb6detail2d219concurrent_hash_mapIPNS3_12InputSectionIT_EES9_IPNS4_ISL_EESaISP_EENSH_2d116tbb_hash_compareISN_EENSS_13tbb_allocatorISt4pairIKSN_SR_EEEEERNS3_7ContextISL_EEENKUlRKNSI_14hash_map_rangeINSI_17hash_map_iteratorINSJ_IPNSK_IS5_EESB_NST_IS17_EENSV_ISW_IKS17_SB_EEEEES1A_EEEEE_clES1G_EUlS7_S7_E_EEEvSL_SL_SL_T0_S1K_T1_S1K_T2_(ptr %__first.coerce, ptr %add.ptr.i, ptr %__last.coerce, i64 noundef %div, i64 noundef %sub.ptr.div.i20, ptr noundef %__buffer, i64 noundef %__buffer_size)
  ret void
}